(dp0
V322361922#0
p1
ccopy_reg
_reconstructor
p2
(c__main__
Turn
p3
c__builtin__
tuple
p4
(g1
(lp5
g2
(c__main__
Outflow
p6
g4
(V-11743058#0
p7
I2
tp8
tp9
Rp10
ag2
(g6
g4
(V-322361922#0
p11
I2
tp12
tp13
Rp14
ag2
(g6
g4
(V320948884#0
p15
I0
tp16
tp17
Rp18
ag2
(g6
g4
(V322361922#1
p19
I0
tp20
tp21
Rp22
a(lp23
F0.16666666670000002
aF0.16666666670000002
aF0.25
aF0.41666666669999997
atp24
tp25
Rp26
sV322361922#1
p27
g2
(g3
g4
(g27
(lp28
g2
(g6
g4
(V-124139640#0
p29
I4
tp30
tp31
Rp32
ag2
(g6
g4
(V-322361922#1
p33
I2
tp34
tp35
Rp36
ag2
(g6
g4
(V322361922#3
p37
I0
tp38
tp39
Rp40
a(lp41
F0.25
aF0.25
aF0.5
atp42
tp43
Rp44
sV322361922#3
p45
g2
(g3
g4
(g45
(lp46
g2
(g6
g4
(V-299800402#0
p47
I6
tp48
tp49
Rp50
ag2
(g6
g4
(V-322361922#3
p51
I6
tp52
tp53
Rp54
ag2
(g6
g4
(V11685533#0
p55
I4
tp56
tp57
Rp58
ag2
(g6
g4
(V54460235#0
p59
I4
tp60
tp61
Rp62
a(lp63
F0.16666666670000002
aF0.16666666670000002
aF0.41666666669999997
aF0.25
atp64
tp65
Rp66
sV-322361922#1
p67
g2
(g3
g4
(g67
(lp68
g2
(g6
g4
(V-11743058#0
p69
I0
tp70
tp71
Rp72
ag2
(g6
g4
(V-322361922#0
p73
I0
tp74
tp75
Rp76
ag2
(g6
g4
(V320948884#0
p77
I2
tp78
tp79
Rp80
ag2
(g6
g4
(V322361922#1
p81
I2
tp82
tp83
Rp84
a(lp85
F0.25
aF0.41666666669999997
aF0.16666666670000002
aF0.16666666670000002
atp86
tp87
Rp88
sV-322361922#3
p89
g2
(g3
g4
(g89
(lp90
g2
(g6
g4
(V-124139640#0
p91
I2
tp92
tp93
Rp94
ag2
(g6
g4
(V-322361922#1
p95
I0
tp96
tp97
Rp98
ag2
(g6
g4
(V322361922#3
p99
I2
tp100
tp101
Rp102
a(lp103
F0.16666666670000002
aF0.6666666667
aF0.16666666670000002
atp104
tp105
Rp106
sV315355614#0
p107
g2
(g3
g4
(g107
(lp108
g2
(g6
g4
(V-315355614#0
p109
I2
tp110
tp111
Rp112
ag2
(g6
g4
(V11685997#0
p113
I2
tp114
tp115
Rp116
ag2
(g6
g4
(V124146853#0
p117
I4
tp118
tp119
Rp120
ag2
(g6
g4
(V25626142
p121
I0
tp122
tp123
Rp124
a(lp125
F0.16666666670000002
aF0.16666666670000002
aF0.25
aF0.41666666669999997
atp126
tp127
Rp128
sV-54500409#5
p129
g2
(g3
g4
(g129
(lp130
g2
(g6
g4
(V-126233175#2
p131
I0
tp132
tp133
Rp134
ag2
(g6
g4
(V-54500409#4
p135
I0
tp136
tp137
Rp138
ag2
(g6
g4
(V11960612#0
p139
I2
tp140
tp141
Rp142
ag2
(g6
g4
(V54500409#5
p143
I2
tp144
tp145
Rp146
a(lp147
F0.16666666670000002
aF0.41666666669999997
aF0.16666666670000002
aF0.25
atp148
tp149
Rp150
sV375884812#0
p151
g2
(g3
g4
(g151
(lp152
g2
(g6
g4
(V-375884812#0
p153
I6
tp154
tp155
Rp156
ag2
(g6
g4
(V-54460235#0
p157
I6
tp158
tp159
Rp160
ag2
(g6
g4
(V54460235#4
p161
I4
tp162
tp163
Rp164
a(lp165
F0.33333333330000003
aF0.33333333330000003
aF0.33333333330000003
atp166
tp167
Rp168
sV315355615#1
p169
g2
(g3
g4
(g169
(lp170
g2
(g6
g4
(V-11685533#1
p171
I4
tp172
tp173
Rp174
ag2
(g6
g4
(V-315355615#1
p175
I6
tp176
tp177
Rp178
ag2
(g6
g4
(V-54500409#5
p179
I4
tp180
tp181
Rp182
ag2
(g6
g4
(V315355614#0
p183
I6
tp184
tp185
Rp186
a(lp187
F0.25
aF0.25
aF0.25
aF0.25
atp188
tp189
Rp190
sV124147486
p191
g2
(g3
g4
(g191
(lp192
g2
(g6
g4
(V-11685533#0
p193
I4
tp194
tp195
Rp196
ag2
(g6
g4
(V11685533#1
p197
I6
tp198
tp199
Rp200
ag2
(g6
g4
(V11728100#0
p201
I4
tp202
tp203
Rp204
a(lp205
F0.33333333330000003
aF0.33333333330000003
aF0.33333333330000003
atp206
tp207
Rp208
sV54460235#0
p209
g2
(g3
g4
(g209
(lp210
g2
(g6
g4
(V-375884812#0
p211
I4
tp212
tp213
Rp214
ag2
(g6
g4
(V-54460235#0
p215
I2
tp216
tp217
Rp218
ag2
(g6
g4
(V54460235#4
p219
I0
tp220
tp221
Rp222
a(lp223
F0.25
aF0.25
aF0.5
atp224
tp225
Rp226
sV-11694197#0
p227
g2
(g3
g4
(g227
(lp228
g2
(g6
g4
(V-625851637
p229
I4
tp230
tp231
Rp232
ag2
(g6
g4
(V11694197#0
p233
I6
tp234
tp235
Rp236
ag2
(g6
g4
(V11743058#0
p237
I4
tp238
tp239
Rp240
ag2
(g6
g4
(V299800402#0
p241
I6
tp242
tp243
Rp244
a(lp245
F0.25
aF0.25
aF0.25
aF0.25
atp246
tp247
Rp248
sV-320948884#0
p249
g2
(g3
g4
(g249
(lp250
g2
(g6
g4
(V-11743058#0
p251
I4
tp252
tp253
Rp254
ag2
(g6
g4
(V-322361922#0
p255
I6
tp256
tp257
Rp258
ag2
(g6
g4
(V320948884#0
p259
I6
tp260
tp261
Rp262
ag2
(g6
g4
(V322361922#1
p263
I4
tp264
tp265
Rp266
a(lp267
F0.25
aF0.25
aF0.25
aF0.25
atp268
tp269
Rp270
sV11685533#1
p271
g2
(g3
g4
(g271
(lp272
g2
(g6
g4
(V-11685533#1
p273
I2
tp274
tp275
Rp276
ag2
(g6
g4
(V-315355615#1
p277
I2
tp278
tp279
Rp280
ag2
(g6
g4
(V-54500409#5
p281
I0
tp282
tp283
Rp284
ag2
(g6
g4
(V315355614#0
p285
I0
tp286
tp287
Rp288
a(lp289
F0.16666666670000002
aF0.16666666670000002
aF0.25
aF0.41666666669999997
atp290
tp291
Rp292
sV11743058#0
p293
g2
(g3
g4
(g293
(lp294
g2
(g6
g4
(V-11743058#0
p295
I6
tp296
tp297
Rp298
ag2
(g6
g4
(V-322361922#0
p299
I4
tp300
tp301
Rp302
ag2
(g6
g4
(V320948884#0
p303
I4
tp304
tp305
Rp306
ag2
(g6
g4
(V322361922#1
p307
I6
tp308
tp309
Rp310
a(lp311
F0.25
aF0.25
aF0.25
aF0.25
atp312
tp313
Rp314
sV-11685533#0
p315
g2
(g3
g4
(g315
(lp316
g2
(g6
g4
(V-299800402#0
p317
I4
tp318
tp319
Rp320
ag2
(g6
g4
(V-322361922#3
p321
I4
tp322
tp323
Rp324
ag2
(g6
g4
(V11685533#0
p325
I6
tp326
tp327
Rp328
ag2
(g6
g4
(V54460235#0
p329
I6
tp330
tp331
Rp332
a(lp333
F0.25
aF0.41666666669999997
aF0.16666666670000002
aF0.16666666670000002
atp334
tp335
Rp336
sV-315355614#0
p337
g2
(g3
g4
(g337
(lp338
g2
(g6
g4
(V-11685533#1
p339
I0
tp340
tp341
Rp342
ag2
(g6
g4
(V-315355615#1
p343
I0
tp344
tp345
Rp346
ag2
(g6
g4
(V-54500409#5
p347
I2
tp348
tp349
Rp350
ag2
(g6
g4
(V315355614#0
p351
I2
tp352
tp353
Rp354
a(lp355
F0.41666666669999997
aF0.25
aF0.16666666670000002
aF0.16666666670000002
atp356
tp357
Rp358
sV124139640#0
p359
g2
(g3
g4
(g359
(lp360
g2
(g6
g4
(V-124139640#0
p361
I6
tp362
tp363
Rp364
ag2
(g6
g4
(V-322361922#1
p365
I6
tp366
tp367
Rp368
ag2
(g6
g4
(V322361922#3
p369
I4
tp370
tp371
Rp372
a(lp373
F0.16666666670000002
aF0.16666666670000002
aF0.6666666667
atp374
tp375
Rp376
sV-54460235#4
p377
g2
(g3
g4
(g377
(lp378
g2
(g6
g4
(V-375884812#0
p379
I2
tp380
tp381
Rp382
ag2
(g6
g4
(V-54460235#0
p383
I0
tp384
tp385
Rp386
ag2
(g6
g4
(V54460235#4
p387
I2
tp388
tp389
Rp390
a(lp391
F0.16666666670000002
aF0.6666666667
aF0.16666666670000002
atp392
tp393
Rp394
sV-54460235#0
p395
g2
(g3
g4
(g395
(lp396
g2
(g6
g4
(V-299800402#0
p397
I0
tp398
tp399
Rp400
ag2
(g6
g4
(V-322361922#3
p401
I2
tp402
tp403
Rp404
ag2
(g6
g4
(V11685533#0
p405
I0
tp406
tp407
Rp408
ag2
(g6
g4
(V54460235#0
p409
I2
tp410
tp411
Rp412
a(lp413
F0.41666666669999997
aF0.16666666670000002
aF0.25
aF0.16666666670000002
atp414
tp415
Rp416
sV-11728100#0
p417
g2
(g3
g4
(g417
(lp418
g2
(g6
g4
(V-11685533#0
p419
I6
tp420
tp421
Rp422
ag2
(g6
g4
(V11685533#1
p423
I4
tp424
tp425
Rp426
ag2
(g6
g4
(V11728100#0
p427
I6
tp428
tp429
Rp430
a(lp431
F0.33333333330000003
aF0.33333333330000003
aF0.33333333330000003
atp432
tp433
Rp434
sV-25626142
p435
g2
(g3
g4
(g435
(lp436
g2
(g6
g4
(V-315355614#0
p437
I0
tp438
tp439
Rp440
ag2
(g6
g4
(V11685997#0
p441
I0
tp442
tp443
Rp444
ag2
(g6
g4
(V124146853#0
p445
I2
tp446
tp447
Rp448
ag2
(g6
g4
(V25626142
p449
I2
tp450
tp451
Rp452
a(lp453
F0.41666666669999997
aF0.25
aF0.16666666670000002
aF0.16666666670000002
atp454
tp455
Rp456
sV126233175#2
p457
g2
(g3
g4
(g457
(lp458
g2
(g6
g4
(V-126233175#2
p459
I6
tp460
tp461
Rp462
ag2
(g6
g4
(V-54500409#4
p463
I4
tp464
tp465
Rp466
ag2
(g6
g4
(V11960612#0
p467
I4
tp468
tp469
Rp470
ag2
(g6
g4
(V54500409#5
p471
I6
tp472
tp473
Rp474
a(lp475
F0.25
aF0.25
aF0.25
aF0.25
atp476
tp477
Rp478
sV625851637
p479
g2
(g3
g4
(g479
(lp480
g2
(g6
g4
(V-625851637
p481
I2
tp482
tp483
Rp484
ag2
(g6
g4
(V11694197#0
p485
I2
tp486
tp487
Rp488
ag2
(g6
g4
(V11743058#0
p489
I0
tp490
tp491
Rp492
ag2
(g6
g4
(V299800402#0
p493
I0
tp494
tp495
Rp496
a(lp497
F0.16666666670000002
aF0.16666666670000002
aF0.25
aF0.41666666669999997
atp498
tp499
Rp500
sV-11685533#1
p501
g2
(g3
g4
(g501
(lp502
g2
(g6
g4
(V-11685533#0
p503
I0
tp504
tp505
Rp506
ag2
(g6
g4
(V11685533#1
p507
I2
tp508
tp509
Rp510
ag2
(g6
g4
(V11728100#0
p511
I2
tp512
tp513
Rp514
a(lp515
F0.6666666667
aF0.16666666670000002
aF0.16666666670000002
atp516
tp517
Rp518
sV11685533#0
p519
g2
(g3
g4
(g519
(lp520
g2
(g6
g4
(V-11685533#0
p521
I2
tp522
tp523
Rp524
ag2
(g6
g4
(V11685533#1
p525
I0
tp526
tp527
Rp528
ag2
(g6
g4
(V11728100#0
p529
I0
tp530
tp531
Rp532
a(lp533
F0.25
aF0.5
aF0.25
atp534
tp535
Rp536
sV-124146853#0
p537
g2
(g3
g4
(g537
(lp538
g2
(g6
g4
(V-315355614#0
p539
I6
tp540
tp541
Rp542
ag2
(g6
g4
(V11685997#0
p543
I4
tp544
tp545
Rp546
ag2
(g6
g4
(V124146853#0
p547
I6
tp548
tp549
Rp550
ag2
(g6
g4
(V25626142
p551
I4
tp552
tp553
Rp554
a(lp555
F0.25
aF0.25
aF0.25
aF0.25
atp556
tp557
Rp558
sV-299800402#0
p559
g2
(g3
g4
(g559
(lp560
g2
(g6
g4
(V-625851637
p561
I0
tp562
tp563
Rp564
ag2
(g6
g4
(V11694197#0
p565
I0
tp566
tp567
Rp568
ag2
(g6
g4
(V11743058#0
p569
I2
tp570
tp571
Rp572
ag2
(g6
g4
(V299800402#0
p573
I2
tp574
tp575
Rp576
a(lp577
F0.41666666669999997
aF0.25
aF0.16666666670000002
aF0.16666666670000002
atp578
tp579
Rp580
sV-11743058#0
p581
g2
(g3
g4
(g581
(lp582
g2
(g6
g4
(V-625851637
p583
I6
tp584
tp585
Rp586
ag2
(g6
g4
(V11694197#0
p587
I4
tp588
tp589
Rp590
ag2
(g6
g4
(V11743058#0
p591
I6
tp592
tp593
Rp594
ag2
(g6
g4
(V299800402#0
p595
I4
tp596
tp597
Rp598
a(lp599
F0.25
aF0.25
aF0.25
aF0.25
atp600
tp601
Rp602
sV-11960612#0
p603
g2
(g3
g4
(g603
(lp604
g2
(g6
g4
(V-126233175#2
p605
I4
tp606
tp607
Rp608
ag2
(g6
g4
(V-54500409#4
p609
I6
tp610
tp611
Rp612
ag2
(g6
g4
(V11960612#0
p613
I6
tp614
tp615
Rp616
ag2
(g6
g4
(V54500409#5
p617
I4
tp618
tp619
Rp620
a(lp621
F0.25
aF0.25
aF0.25
aF0.25
atp622
tp623
Rp624
sV299800402#0
p625
g2
(g3
g4
(g625
(lp626
g2
(g6
g4
(V-299800402#0
p627
I2
tp628
tp629
Rp630
ag2
(g6
g4
(V-322361922#3
p631
I0
tp632
tp633
Rp634
ag2
(g6
g4
(V11685533#0
p635
I2
tp636
tp637
Rp638
ag2
(g6
g4
(V54460235#0
p639
I0
tp640
tp641
Rp642
a(lp643
F0.16666666670000002
aF0.25
aF0.16666666670000002
aF0.41666666669999997
atp644
tp645
Rp646
sV54500409#4
p647
g2
(g3
g4
(g647
(lp648
g2
(g6
g4
(V-126233175#2
p649
I2
tp650
tp651
Rp652
ag2
(g6
g4
(V-54500409#4
p653
I2
tp654
tp655
Rp656
ag2
(g6
g4
(V11960612#0
p657
I0
tp658
tp659
Rp660
ag2
(g6
g4
(V54500409#5
p661
I0
tp662
tp663
Rp664
a(lp665
F0.16666666670000002
aF0.16666666670000002
aF0.25
aF0.41666666669999997
atp666
tp667
Rp668
sV54500409#5
p669
g2
(g3
g4
(g669
(lp670
g2
(g6
g4
(V-11685533#1
p671
I6
tp672
tp673
Rp674
ag2
(g6
g4
(V-315355615#1
p675
I4
tp676
tp677
Rp678
ag2
(g6
g4
(V-54500409#5
p679
I6
tp680
tp681
Rp682
ag2
(g6
g4
(V315355614#0
p683
I4
tp684
tp685
Rp686
a(lp687
F0.25
aF0.25
aF0.25
aF0.25
atp688
tp689
Rp690
s.